; Function Attrs: mustprogress nofree norecurse nosync nounwind willreturn memory(argmem: read) uwtable
define dso_local ptr @AllocSetGetChunkContext(ptr noundef readonly captures(none) %0) local_unnamed_addr #9 {
  %2 = getelementptr inbounds i8, ptr %0, i64 -8
  %.val = load i64, ptr %2, align 8
  %3 = and i64 %.val, 16
  %.not = icmp eq i64 %3, 0
  %4 = getelementptr inbounds i8, ptr %0, i64 -48
  %5 = lshr i64 %.val, 34
  %6 = and i64 %5, 1073741822
  %7 = sub nsw i64 0, %6
  %8 = getelementptr inbounds i8, ptr %2, i64 %7
  %.0 = select i1 %.not, ptr %8, ptr %4
  %9 = load ptr, ptr %.0, align 8
  ret ptr %9
}